target datalayout = "e-m:e-p270:32:32-p271:32:32-p272:64:64-i64:64-i128:128-f80:128-n8:16:32:64-S128"
target triple = "x86_64-pc-linux-gnu"

%struct.H5D_chunk_rec_t = type { [33 x i64], i32, i32, i64 }

@H5D_init_g = external global i8, align 1
@H5_libterm_g = external global i8, align 1

; Function Attrs: nounwind uwtable
define internal i32 @H5D__chunk_allocated_cb(ptr noundef %0, ptr noundef %1) #0 {
  %3 = alloca ptr, align 8
  %4 = alloca ptr, align 8
  %5 = alloca ptr, align 8
  store ptr %0, ptr %3, align 8, !tbaa !259
  store ptr %1, ptr %4, align 8, !tbaa !154
  call void @llvm.lifetime.start.p0(i64 8, ptr %5) #10
  %6 = load ptr, ptr %4, align 8, !tbaa !154
  store ptr %6, ptr %5, align 8, !tbaa !152
  %7 = load i8, ptr @H5D_init_g, align 1, !tbaa !12, !range !14, !noundef !15
  %8 = trunc i8 %7 to i1
  br i1 %8, label %13, label %9

9:                                                ; preds = %2
  %10 = load i8, ptr @H5_libterm_g, align 1, !tbaa !12, !range !14, !noundef !15
  %11 = trunc i8 %10 to i1
  %12 = xor i1 %11, true
  br label %13

13:                                               ; preds = %9, %2
  %14 = phi i1 [ true, %2 ], [ %12, %9 ]
  %15 = xor i1 %14, true
  %16 = xor i1 %15, true
  %17 = zext i1 %16 to i32
  %18 = sext i32 %17 to i64
  %19 = call i64 @llvm.expect.i64(i64 %18, i64 1)
  %20 = icmp ne i64 %19, 0
  br i1 %20, label %21, label %29

21:                                               ; preds = %13
  %22 = load ptr, ptr %3, align 8, !tbaa !259
  %23 = getelementptr inbounds nuw %struct.H5D_chunk_rec_t, ptr %22, i32 0, i32 1
  %24 = load i32, ptr %23, align 8, !tbaa !261
  %25 = zext i32 %24 to i64
  %26 = load ptr, ptr %5, align 8, !tbaa !152
  %27 = load i64, ptr %26, align 8, !tbaa !24
  %28 = add i64 %27, %25
  store i64 %28, ptr %26, align 8, !tbaa !24
  br label %29

29:                                               ; preds = %21, %13
  call void @llvm.lifetime.end.p0(i64 8, ptr %5) #10
  ret i32 0
}