; Function Attrs: mustprogress nofree norecurse nosync nounwind willreturn memory(read, argmem: readwrite, inaccessiblemem: none) uwtable
define internal noundef i32 @H5D__chunk_allocated_cb(ptr noundef readonly captures(none) %0, ptr noundef captures(none) %1) #6 {
  %3 = load i8, ptr @H5D_init_g, align 1, !tbaa !3, !range !7, !noundef !8
  %4 = trunc nuw i8 %3 to i1
  %5 = load i8, ptr @H5_libterm_g, align 1, !range !7
  %6 = trunc nuw i8 %5 to i1
  %7 = xor i1 %6, true
  %8 = select i1 %4, i1 true, i1 %7
  br i1 %8, label %9, label %15, !prof !9

9:                                                ; preds = %2
  %10 = getelementptr inbounds nuw i8, ptr %0, i64 264
  %11 = load i32, ptr %10, align 8, !tbaa !253
  %12 = zext i32 %11 to i64
  %13 = load i64, ptr %1, align 8, !tbaa !21
  %14 = add i64 %13, %12
  store i64 %14, ptr %1, align 8, !tbaa !21
  br label %15

15:                                               ; preds = %9, %2
  ret i32 0
}